; ModuleID = 'source-C-CXX/24/1287.cpp'
source_filename = "source-C-CXX/24/1287.cpp"
target datalayout = "e-m:e-p270:32:32-p271:32:32-p272:64:64-i64:64-f80:128-n8:16:32:64-S128"
target triple = "x86_64-pc-linux-gnu"

%"class.std::ios_base::Init" = type { i8 }
%"class.std::basic_istream" = type { i32 (...)**, i64, %"class.std::basic_ios" }
%"class.std::basic_ios" = type { %"class.std::ios_base", %"class.std::basic_ostream"*, i8, i8, %"class.std::basic_streambuf"*, %"class.std::ctype"*, %"class.std::num_put"*, %"class.std::num_get"* }
%"class.std::ios_base" = type { i32 (...)**, i64, i64, i32, i32, i32, %"struct.std::ios_base::_Callback_list"*, %"struct.std::ios_base::_Words", [8 x %"struct.std::ios_base::_Words"], i32, %"struct.std::ios_base::_Words"*, %"class.std::locale" }
%"struct.std::ios_base::_Callback_list" = type { %"struct.std::ios_base::_Callback_list"*, void (i32, %"class.std::ios_base"*, i32)*, i32, i32 }
%"struct.std::ios_base::_Words" = type { i8*, i64 }
%"class.std::locale" = type { %"class.std::locale::_Impl"* }
%"class.std::locale::_Impl" = type { i32, %"class.std::locale::facet"**, i64, %"class.std::locale::facet"**, i8** }
%"class.std::locale::facet" = type <{ i32 (...)**, i32, [4 x i8] }>
%"class.std::basic_ostream" = type { i32 (...)**, %"class.std::basic_ios" }
%"class.std::basic_streambuf" = type { i32 (...)**, i8*, i8*, i8*, i8*, i8*, i8*, %"class.std::locale" }
%"class.std::ctype" = type <{ %"class.std::locale::facet.base", [4 x i8], %struct.__locale_struct*, i8, [7 x i8], i32*, i32*, i16*, i8, [256 x i8], [256 x i8], i8, [6 x i8] }>
%"class.std::locale::facet.base" = type <{ i32 (...)**, i32 }>
%struct.__locale_struct = type { [13 x %struct.__locale_data*], i16*, i32*, i32*, [13 x i8*] }
%struct.__locale_data = type opaque
%"class.std::num_put" = type { %"class.std::locale::facet.base", [4 x i8] }
%"class.std::num_get" = type { %"class.std::locale::facet.base", [4 x i8] }

@_ZStL8__ioinit = internal global %"class.std::ios_base::Init" zeroinitializer, align 1
@__dso_handle = external hidden global i8
@_ZSt3cin = external global %"class.std::basic_istream", align 8
@_ZSt4cout = external global %"class.std::basic_ostream", align 8
@llvm.global_ctors = appending global [1 x { i32, void ()*, i8* }] [{ i32, void ()*, i8* } { i32 65535, void ()* @_GLOBAL__sub_I_1287.cpp, i8* null }]

declare void @_ZNSt8ios_base4InitC1Ev(%"class.std::ios_base::Init"* nonnull align 1 dereferenceable(1)) unnamed_addr #0

; Function Attrs: nounwind
declare void @_ZNSt8ios_base4InitD1Ev(%"class.std::ios_base::Init"* nonnull align 1 dereferenceable(1)) unnamed_addr #1

; Function Attrs: nofree nounwind
declare i32 @__cxa_atexit(void (i8*)*, i8*, i8*) local_unnamed_addr #2

; Function Attrs: mustprogress norecurse sspstrong uwtable
define dso_local i32 @main() local_unnamed_addr #3 {
  %1 = alloca i32, align 4
  %2 = alloca [1000 x i32], align 16
  %3 = bitcast i32* %1 to i8*
  call void @llvm.lifetime.start.p0i8(i64 4, i8* nonnull %3) #7
  %4 = call nonnull align 8 dereferenceable(16) %"class.std::basic_istream"* @_ZNSirsERi(%"class.std::basic_istream"* nonnull align 8 dereferenceable(16) @_ZSt3cin, i32* nonnull align 4 dereferenceable(4) %1)
  %5 = bitcast [1000 x i32]* %2 to i8*
  call void @llvm.lifetime.start.p0i8(i64 4000, i8* nonnull %5) #7
  call void @llvm.memset.p0i8.i64(i8* noundef nonnull align 16 dereferenceable(4000) %5, i8 0, i64 4000, i1 false)
  %6 = getelementptr inbounds [1000 x i32], [1000 x i32]* %2, i64 0, i64 0
  store i32 1, i32* %6, align 16, !tbaa !5
  %7 = load i32, i32* %1, align 4, !tbaa !5
  %8 = icmp sgt i32 %7, 0
  br i1 %8, label %9, label %42

9:                                                ; preds = %0, %39
  %10 = phi i32 [ %40, %39 ], [ 0, %0 ]
  br label %11

11:                                               ; preds = %62, %9
  %12 = phi i64 [ 0, %9 ], [ %73, %62 ]
  %13 = getelementptr inbounds [1000 x i32], [1000 x i32]* %2, i64 0, i64 %12
  %14 = bitcast i32* %13 to <4 x i32>*
  %15 = load <4 x i32>, <4 x i32>* %14, align 16, !tbaa !5
  %16 = getelementptr inbounds i32, i32* %13, i64 4
  %17 = bitcast i32* %16 to <4 x i32>*
  %18 = load <4 x i32>, <4 x i32>* %17, align 16, !tbaa !5
  %19 = shl nsw <4 x i32> %15, <i32 1, i32 1, i32 1, i32 1>
  %20 = shl nsw <4 x i32> %18, <i32 1, i32 1, i32 1, i32 1>
  %21 = bitcast i32* %13 to <4 x i32>*
  store <4 x i32> %19, <4 x i32>* %21, align 16, !tbaa !5
  %22 = bitcast i32* %16 to <4 x i32>*
  store <4 x i32> %20, <4 x i32>* %22, align 16, !tbaa !5
  %23 = or i64 %12, 8
  %24 = icmp eq i64 %23, 1000
  br i1 %24, label %25, label %62, !llvm.loop !9

25:                                               ; preds = %11, %37
  %26 = phi i64 [ %30, %37 ], [ 0, %11 ]
  %27 = getelementptr inbounds [1000 x i32], [1000 x i32]* %2, i64 0, i64 %26
  %28 = load i32, i32* %27, align 4, !tbaa !5
  %29 = icmp sgt i32 %28, 9
  %30 = add nuw nsw i64 %26, 1
  br i1 %29, label %31, label %37

31:                                               ; preds = %25
  %32 = getelementptr inbounds [1000 x i32], [1000 x i32]* %2, i64 0, i64 %30
  %33 = load i32, i32* %32, align 4, !tbaa !5
  %34 = udiv i32 %28, 10
  %35 = add nsw i32 %33, %34
  store i32 %35, i32* %32, align 4, !tbaa !5
  %36 = urem i32 %28, 10
  store i32 %36, i32* %27, align 4, !tbaa !5
  br label %37

37:                                               ; preds = %25, %31
  %38 = icmp eq i64 %30, 1000
  br i1 %38, label %39, label %25, !llvm.loop !12

39:                                               ; preds = %37
  %40 = add nuw nsw i32 %10, 1
  %41 = icmp eq i32 %40, %7
  br i1 %41, label %42, label %9, !llvm.loop !13

42:                                               ; preds = %39, %0
  br label %43

43:                                               ; preds = %42, %43
  %44 = phi i64 [ %48, %43 ], [ 999, %42 ]
  %45 = getelementptr inbounds [1000 x i32], [1000 x i32]* %2, i64 0, i64 %44
  %46 = load i32, i32* %45, align 4, !tbaa !5
  %47 = icmp eq i32 %46, 0
  %48 = add i64 %44, -1
  br i1 %47, label %43, label %49, !llvm.loop !14

49:                                               ; preds = %43
  %50 = trunc i64 %44 to i32
  %51 = icmp sgt i32 %50, -1
  br i1 %51, label %52, label %61

52:                                               ; preds = %49
  %53 = and i64 %44, 4294967295
  br label %54

54:                                               ; preds = %52, %54
  %55 = phi i64 [ %53, %52 ], [ %60, %54 ]
  %56 = getelementptr inbounds [1000 x i32], [1000 x i32]* %2, i64 0, i64 %55
  %57 = load i32, i32* %56, align 4, !tbaa !5
  %58 = call nonnull align 8 dereferenceable(8) %"class.std::basic_ostream"* @_ZNSolsEi(%"class.std::basic_ostream"* nonnull align 8 dereferenceable(8) @_ZSt4cout, i32 %57)
  %59 = icmp sgt i64 %55, 0
  %60 = add nsw i64 %55, -1
  br i1 %59, label %54, label %61, !llvm.loop !15

61:                                               ; preds = %54, %49
  call void @llvm.lifetime.end.p0i8(i64 4000, i8* nonnull %5) #7
  call void @llvm.lifetime.end.p0i8(i64 4, i8* nonnull %3) #7
  ret i32 0

62:                                               ; preds = %11
  %63 = getelementptr inbounds [1000 x i32], [1000 x i32]* %2, i64 0, i64 %23
  %64 = bitcast i32* %63 to <4 x i32>*
  %65 = load <4 x i32>, <4 x i32>* %64, align 16, !tbaa !5
  %66 = getelementptr inbounds i32, i32* %63, i64 4
  %67 = bitcast i32* %66 to <4 x i32>*
  %68 = load <4 x i32>, <4 x i32>* %67, align 16, !tbaa !5
  %69 = shl nsw <4 x i32> %65, <i32 1, i32 1, i32 1, i32 1>
  %70 = shl nsw <4 x i32> %68, <i32 1, i32 1, i32 1, i32 1>
  %71 = bitcast i32* %63 to <4 x i32>*
  store <4 x i32> %69, <4 x i32>* %71, align 16, !tbaa !5
  %72 = bitcast i32* %66 to <4 x i32>*
  store <4 x i32> %70, <4 x i32>* %72, align 16, !tbaa !5
  %73 = add nuw nsw i64 %12, 16
  br label %11
}

; Function Attrs: argmemonly mustprogress nofree nosync nounwind willreturn
declare void @llvm.lifetime.start.p0i8(i64 immarg, i8* nocapture) #4

declare nonnull align 8 dereferenceable(16) %"class.std::basic_istream"* @_ZNSirsERi(%"class.std::basic_istream"* nonnull align 8 dereferenceable(16), i32* nonnull align 4 dereferenceable(4)) local_unnamed_addr #0

; Function Attrs: argmemonly mustprogress nofree nounwind willreturn writeonly
declare void @llvm.memset.p0i8.i64(i8* nocapture writeonly, i8, i64, i1 immarg) #5

declare nonnull align 8 dereferenceable(8) %"class.std::basic_ostream"* @_ZNSolsEi(%"class.std::basic_ostream"* nonnull align 8 dereferenceable(8), i32) local_unnamed_addr #0

; Function Attrs: argmemonly mustprogress nofree nosync nounwind willreturn
declare void @llvm.lifetime.end.p0i8(i64 immarg, i8* nocapture) #4

; Function Attrs: sspstrong uwtable
define internal void @_GLOBAL__sub_I_1287.cpp() #6 section ".text.startup" {
  tail call void @_ZNSt8ios_base4InitC1Ev(%"class.std::ios_base::Init"* nonnull align 1 dereferenceable(1) @_ZStL8__ioinit)
  %1 = tail call i32 @__cxa_atexit(void (i8*)* bitcast (void (%"class.std::ios_base::Init"*)* @_ZNSt8ios_base4InitD1Ev to void (i8*)*), i8* getelementptr inbounds (%"class.std::ios_base::Init", %"class.std::ios_base::Init"* @_ZStL8__ioinit, i64 0, i32 0), i8* nonnull @__dso_handle) #7
  ret void
}


!llvm.module.flags = !{!0, !1, !2, !3}
!llvm.ident = !{!4}

!0 = !{i32 1, !"wchar_size", i32 4}
!1 = !{i32 7, !"PIC Level", i32 2}
!2 = !{i32 7, !"PIE Level", i32 2}
!3 = !{i32 7, !"uwtable", i32 1}
!4 = !{!"clang version 13.0.0"}
!5 = !{!6, !6, i64 0}
!6 = !{!"int", !7, i64 0}
!7 = !{!"omnipotent char", !8, i64 0}
!8 = !{!"Simple C++ TBAA"}
!9 = distinct !{!9, !10, !11}
!10 = !{!"llvm.loop.mustprogress"}
!11 = !{!"llvm.loop.isvectorized", i32 1}
!12 = distinct !{!12, !10}
!13 = distinct !{!13, !10}
!14 = distinct !{!14, !10}
!15 = distinct !{!15, !10}
